target datalayout = "e-m:e-p270:32:32-p271:32:32-p272:64:64-i64:64-i128:128-f80:128-n8:16:32:64-S128"
target triple = "x86_64-pc-linux-gnu"

%struct.blob = type { ptr, ptr, i64, i64, i32 }

@.str.1 = private unnamed_addr constant [10 x i8] c"b != NULL\00", align 1
@.str.2 = private unnamed_addr constant [108 x i8] c"generated/home/dtcxzyw/WorkSpace/Projects/compilers/llvm-opt-benchmark/bench/clamav/clamav/libclamav/blob.c\00", align 1
@__PRETTY_FUNCTION__.blobClose = private unnamed_addr constant [23 x i8] c"void blobClose(blob *)\00", align 1
@.str.11 = private unnamed_addr constant [43 x i8] c"Attempt to close a previously closed blob\0A\00", align 1
@.str.12 = private unnamed_addr constant [36 x i8] c"blobClose: recovered all %lu bytes\0A\00", align 1
@.str.13 = private unnamed_addr constant [41 x i8] c"blobClose: recovered %lu bytes from %lu\0A\00", align 1

; Function Attrs: nounwind uwtable
define void @blobClose(ptr noundef %0) #0 {
  %2 = alloca ptr, align 8
  %3 = alloca ptr, align 8
  store ptr %0, ptr %2, align 8
  %4 = load ptr, ptr %2, align 8
  %5 = icmp ne ptr %4, null
  br i1 %5, label %6, label %7

6:                                                ; preds = %1
  br label %8

7:                                                ; preds = %1
  call void @__assert_fail(ptr noundef @.str.1, ptr noundef @.str.2, i32 noundef 300, ptr noundef @__PRETTY_FUNCTION__.blobClose) #8
  unreachable

8:                                                ; preds = %6
  %9 = load ptr, ptr %2, align 8
  %10 = getelementptr inbounds %struct.blob, ptr %9, i32 0, i32 4
  %11 = load i32, ptr %10, align 8
  %12 = icmp ne i32 %11, 0
  br i1 %12, label %13, label %14

13:                                               ; preds = %8
  call void (ptr, ...) @cli_warnmsg(ptr noundef @.str.11)
  br label %73

14:                                               ; preds = %8
  %15 = load ptr, ptr %2, align 8
  %16 = getelementptr inbounds %struct.blob, ptr %15, i32 0, i32 3
  %17 = load i64, ptr %16, align 8
  %18 = load ptr, ptr %2, align 8
  %19 = getelementptr inbounds %struct.blob, ptr %18, i32 0, i32 2
  %20 = load i64, ptr %19, align 8
  %21 = sub nsw i64 %17, %20
  %22 = icmp sge i64 %21, 64
  br i1 %22, label %23, label %70

23:                                               ; preds = %14
  %24 = load ptr, ptr %2, align 8
  %25 = getelementptr inbounds %struct.blob, ptr %24, i32 0, i32 2
  %26 = load i64, ptr %25, align 8
  %27 = icmp eq i64 %26, 0
  br i1 %27, label %28, label %39

28:                                               ; preds = %23
  %29 = load ptr, ptr %2, align 8
  %30 = getelementptr inbounds %struct.blob, ptr %29, i32 0, i32 1
  %31 = load ptr, ptr %30, align 8
  call void @free(ptr noundef %31) #9
  %32 = load ptr, ptr %2, align 8
  %33 = getelementptr inbounds %struct.blob, ptr %32, i32 0, i32 1
  store ptr null, ptr %33, align 8
  %34 = load ptr, ptr %2, align 8
  %35 = getelementptr inbounds %struct.blob, ptr %34, i32 0, i32 3
  %36 = load i64, ptr %35, align 8
  call void (ptr, ...) @cli_dbgmsg(ptr noundef @.str.12, i64 noundef %36)
  %37 = load ptr, ptr %2, align 8
  %38 = getelementptr inbounds %struct.blob, ptr %37, i32 0, i32 3
  store i64 0, ptr %38, align 8
  br label %69

39:                                               ; preds = %23
  %40 = load ptr, ptr %2, align 8
  %41 = getelementptr inbounds %struct.blob, ptr %40, i32 0, i32 1
  %42 = load ptr, ptr %41, align 8
  %43 = load ptr, ptr %2, align 8
  %44 = getelementptr inbounds %struct.blob, ptr %43, i32 0, i32 2
  %45 = load i64, ptr %44, align 8
  %46 = call ptr @cli_max_realloc(ptr noundef %42, i64 noundef %45)
  store ptr %46, ptr %3, align 8
  %47 = load ptr, ptr %3, align 8
  %48 = icmp eq ptr %47, null
  br i1 %48, label %49, label %50

49:                                               ; preds = %39
  br label %73

50:                                               ; preds = %39
  %51 = load ptr, ptr %2, align 8
  %52 = getelementptr inbounds %struct.blob, ptr %51, i32 0, i32 3
  %53 = load i64, ptr %52, align 8
  %54 = load ptr, ptr %2, align 8
  %55 = getelementptr inbounds %struct.blob, ptr %54, i32 0, i32 2
  %56 = load i64, ptr %55, align 8
  %57 = sub nsw i64 %53, %56
  %58 = load ptr, ptr %2, align 8
  %59 = getelementptr inbounds %struct.blob, ptr %58, i32 0, i32 3
  %60 = load i64, ptr %59, align 8
  call void (ptr, ...) @cli_dbgmsg(ptr noundef @.str.13, i64 noundef %57, i64 noundef %60)
  %61 = load ptr, ptr %2, align 8
  %62 = getelementptr inbounds %struct.blob, ptr %61, i32 0, i32 2
  %63 = load i64, ptr %62, align 8
  %64 = load ptr, ptr %2, align 8
  %65 = getelementptr inbounds %struct.blob, ptr %64, i32 0, i32 3
  store i64 %63, ptr %65, align 8
  %66 = load ptr, ptr %3, align 8
  %67 = load ptr, ptr %2, align 8
  %68 = getelementptr inbounds %struct.blob, ptr %67, i32 0, i32 1
  store ptr %66, ptr %68, align 8
  br label %69

69:                                               ; preds = %50, %28
  br label %70

70:                                               ; preds = %69, %14
  %71 = load ptr, ptr %2, align 8
  %72 = getelementptr inbounds %struct.blob, ptr %71, i32 0, i32 4
  store i32 1, ptr %72, align 8
  br label %73

73:                                               ; preds = %70, %49, %13
  ret void
}