; Function Attrs: nounwind uwtable
define void @blobClose(ptr noundef %0) local_unnamed_addr #2 {
  %.not = icmp eq ptr %0, null
  br i1 %.not, label %2, label %3

2:                                                ; preds = %1
  tail call void @__assert_fail(ptr noundef nonnull @.str.1, ptr noundef nonnull @.str.2, i32 noundef 300, ptr noundef nonnull @__PRETTY_FUNCTION__.blobClose) #17
  unreachable

3:                                                ; preds = %1
  %4 = getelementptr inbounds i8, ptr %0, i64 32
  %5 = load i32, ptr %4, align 8
  %.not22 = icmp eq i32 %5, 0
  br i1 %.not22, label %7, label %6

6:                                                ; preds = %3
  tail call void (ptr, ...) @cli_warnmsg(ptr noundef nonnull @.str.11) #16
  br label %29

7:                                                ; preds = %3
  %8 = getelementptr inbounds i8, ptr %0, i64 24
  %9 = load i64, ptr %8, align 8
  %10 = getelementptr inbounds i8, ptr %0, i64 16
  %11 = load i64, ptr %10, align 8
  %12 = sub nsw i64 %9, %11
  %13 = icmp sgt i64 %12, 63
  br i1 %13, label %14, label %28

14:                                               ; preds = %7
  %15 = icmp eq i64 %11, 0
  %16 = getelementptr inbounds i8, ptr %0, i64 8
  %17 = load ptr, ptr %16, align 8
  br i1 %15, label %18, label %20

18:                                               ; preds = %14
  tail call void @free(ptr noundef %17) #16
  store ptr null, ptr %16, align 8
  %19 = load i64, ptr %8, align 8
  tail call void (ptr, ...) @cli_dbgmsg(ptr noundef nonnull @.str.12, i64 noundef %19) #16
  store i64 0, ptr %8, align 8
  br label %28

20:                                               ; preds = %14
  %21 = tail call ptr @cli_max_realloc(ptr noundef %17, i64 noundef %11) #16
  %22 = icmp eq ptr %21, null
  br i1 %22, label %29, label %23

23:                                               ; preds = %20
  %24 = load i64, ptr %8, align 8
  %25 = load i64, ptr %10, align 8
  %26 = sub nsw i64 %24, %25
  tail call void (ptr, ...) @cli_dbgmsg(ptr noundef nonnull @.str.13, i64 noundef %26, i64 noundef %24) #16
  %27 = load i64, ptr %10, align 8
  store i64 %27, ptr %8, align 8
  store ptr %21, ptr %16, align 8
  br label %28

28:                                               ; preds = %18, %23, %7
  store i32 1, ptr %4, align 8
  br label %29

29:                                               ; preds = %20, %28, %6
  ret void
}